; Function Attrs: mustprogress nounwind uwtable
define hidden void @_ZN13TemplateTable17locals_index_wideE8Register(i32 %0) local_unnamed_addr #0 align 2 {
  %2 = alloca %class.Address, align 16
  %3 = load ptr, ptr @_ZN13TemplateTable5_masmE, align 8
  %4 = load i8, ptr @PrintInterpreter, align 1
  %5 = trunc i8 %4 to i1
  br i1 %5, label %6, label %_ZN12Disassembler4hookI25InterpreterMacroAssemblerEEPT_PKciS3_.exit

6:                                                ; preds = %1
  tail call void @_ZN12Disassembler5_hookEPKciP14MacroAssembler(ptr noundef nonnull @.str, i32 noundef 719, ptr noundef %3) #8
  br label %_ZN12Disassembler4hookI25InterpreterMacroAssemblerEEPT_PKciS3_.exit

_ZN12Disassembler4hookI25InterpreterMacroAssemblerEEPT_PKciS3_.exit: ; preds = %1, %6
  store <4 x i32> <i32 13, i32 -1, i32 -1, i32 -1>, ptr %2, align 16, !alias.scope !81
  %7 = getelementptr inbounds i8, ptr %2, i64 16
  store i32 2, ptr %7, align 16, !alias.scope !81
  %8 = getelementptr inbounds i8, ptr %2, i64 20
  store i8 0, ptr %8, align 4, !alias.scope !81
  %9 = getelementptr inbounds i8, ptr %2, i64 24
  store ptr getelementptr inbounds inrange(-16, 72) (i8, ptr @_ZTV10Relocation, i64 16), ptr %9, align 8, !alias.scope !81
  %10 = getelementptr inbounds i8, ptr %2, i64 32
  store ptr null, ptr %10, align 16, !alias.scope !81
  %11 = getelementptr inbounds i8, ptr %2, i64 40
  store i32 0, ptr %11, align 8, !alias.scope !81
  %12 = call noundef i32 @_ZN14MacroAssembler19load_unsigned_shortE8Register7Address(ptr noundef nonnull align 8 dereferenceable(40) %3, i32 %0, ptr noundef nonnull %2) #8
  %13 = load ptr, ptr @_ZN13TemplateTable5_masmE, align 8
  %14 = load i8, ptr @PrintInterpreter, align 1
  %15 = trunc i8 %14 to i1
  br i1 %15, label %16, label %_ZN12Disassembler4hookI25InterpreterMacroAssemblerEEPT_PKciS3_.exit8

16:                                               ; preds = %_ZN12Disassembler4hookI25InterpreterMacroAssemblerEEPT_PKciS3_.exit
  call void @_ZN12Disassembler5_hookEPKciP14MacroAssembler(ptr noundef nonnull @.str, i32 noundef 720, ptr noundef %13) #8
  br label %_ZN12Disassembler4hookI25InterpreterMacroAssemblerEEPT_PKciS3_.exit8

_ZN12Disassembler4hookI25InterpreterMacroAssemblerEEPT_PKciS3_.exit8: ; preds = %_ZN12Disassembler4hookI25InterpreterMacroAssemblerEEPT_PKciS3_.exit, %16
  call void @_ZN9Assembler6bswaplE8Register(ptr noundef nonnull align 8 dereferenceable(40) %13, i32 %0) #8
  %17 = load ptr, ptr @_ZN13TemplateTable5_masmE, align 8
  %18 = load i8, ptr @PrintInterpreter, align 1
  %19 = trunc i8 %18 to i1
  br i1 %19, label %20, label %_ZN12Disassembler4hookI25InterpreterMacroAssemblerEEPT_PKciS3_.exit9

20:                                               ; preds = %_ZN12Disassembler4hookI25InterpreterMacroAssemblerEEPT_PKciS3_.exit8
  call void @_ZN12Disassembler5_hookEPKciP14MacroAssembler(ptr noundef nonnull @.str, i32 noundef 721, ptr noundef %17) #8
  br label %_ZN12Disassembler4hookI25InterpreterMacroAssemblerEEPT_PKciS3_.exit9

_ZN12Disassembler4hookI25InterpreterMacroAssemblerEEPT_PKciS3_.exit9: ; preds = %_ZN12Disassembler4hookI25InterpreterMacroAssemblerEEPT_PKciS3_.exit8, %20
  call void @_ZN9Assembler4shrlE8Registeri(ptr noundef nonnull align 8 dereferenceable(40) %17, i32 %0, i32 noundef 16) #8
  %21 = load ptr, ptr @_ZN13TemplateTable5_masmE, align 8
  %22 = load i8, ptr @PrintInterpreter, align 1
  %23 = trunc i8 %22 to i1
  br i1 %23, label %24, label %_ZN12Disassembler4hookI25InterpreterMacroAssemblerEEPT_PKciS3_.exit10

24:                                               ; preds = %_ZN12Disassembler4hookI25InterpreterMacroAssemblerEEPT_PKciS3_.exit9
  call void @_ZN12Disassembler5_hookEPKciP14MacroAssembler(ptr noundef nonnull @.str, i32 noundef 722, ptr noundef %21) #8
  br label %_ZN12Disassembler4hookI25InterpreterMacroAssemblerEEPT_PKciS3_.exit10

_ZN12Disassembler4hookI25InterpreterMacroAssemblerEEPT_PKciS3_.exit10: ; preds = %_ZN12Disassembler4hookI25InterpreterMacroAssemblerEEPT_PKciS3_.exit9, %24
  call void @_ZN9Assembler4negqE8Register(ptr noundef nonnull align 8 dereferenceable(40) %21, i32 %0) #8
  ret void
}